(dp1
I0
I0
sI1
I0
sI2
I0
sI3
I0
sI4
I0
sI5
I0
sI6
I0
sI7
I0
sI8
I0
sI9
I0
sI10
I0
sI11
I0
sI12
I0
sI13
I0
sI14
I0
sI15
I0
sI16
I0
sI17
I0
sI18
I0
sI19
I0
sI20
I0
sI21
I0
sI22
I0
sI23
I0
sI24
I0
sI25
I0
sI26
I0
sI27
I0
sI28
I0
sI29
I0
sI30
I0
sI31
I0
sI32
I0
sI33
I0
sI34
I0
sI35
I0
sI36
I0
sI37
I0
sI38
I0
sI39
I0
sI40
I0
sI41
I0
sI42
I0
sI43
I0
sI44
I0
sI45
I0
sI46
I0
sI47
I0
sI48
I0
sI49
I0
sI50
I0
sI51
I0
sI52
I0
sI53
I0
sI54
I0
sI55
I0
sI56
I0
sI57
I0
sI58
I0
sI59
I0
sI60
I0
sI61
I0
sI62
I0
sI63
I0
sI64
I0
sI65
I0
sI66
I0
sI67
I0
sI68
I0
sI69
I0
sI70
I0
sI71
I0
sI72
I0
sI73
I0
sI74
I0
sI75
I0
sI76
I0
sI77
I0
sI78
I0
sI79
I0
sI80
I0
sI81
I0
sI82
I0
sI83
I0
sI84
I0
sI85
I0
sI86
I0
sI87
I0
sI88
I0
sI89
I0
sI90
I0
sI91
I0
sI92
I0
sI93
I0
sI94
I0
sI95
I0
sI96
I0
sI97
I0
sI98
I0
sI99
I0
sI100
I0
sI101
I0
sI102
I0
sI103
I0
sI104
I0
sI105
I0
sI106
I0
sI107
I0
sI108
I0
sI109
I0
sI110
I0
sI111
I0
sI112
I0
sI113
I0
sI114
I0
sI115
I0
sI116
I0
sI117
I0
sI118
I0
sI119
I0
sI120
I0
sI121
I0
sI122
I0
sI123
I0
sI124
I0
sI125
I0
sI126
I0
sI127
I0
sI128
I0
sI129
I0
sI130
I0
sI131
I0
sI132
I0
sI133
I0
sI134
I0
sI135
I0
sI136
I0
sI137
I0
sI138
I0
sI139
I0
sI140
I0
sI141
I0
sI142
I0
sI143
I0
sI144
I0
sI145
I0
sI146
I0
sI147
I0
sI148
I0
sI149
I0
sI150
I0
sI151
I0
sI152
I0
sI153
I0
sI154
I0
sI155
I0
sI156
I0
sI157
I0
sI158
I0
sI159
I0
sI160
I0
sI161
I0
sI162
I0
sI163
I0
sI164
I0
sI165
I0
sI166
I0
sI167
I0
sI168
I0
sI169
I0
sI170
I0
sI171
I0
sI172
I0
sI173
I0
sI174
I0
sI175
I0
sI176
I0
sI177
I0
sI178
I0
sI179
I0
sI180
I0
s.