(dp1
I0
I17
sI1
I20
sI2
I22
sI3
I25
sI4
I28
sI5
I30
sI6
I33
sI7
I36
sI8
I38
sI9
I41
sI10
I44
sI11
I46
sI12
I49
sI13
I52
sI14
I54
sI15
I57
sI16
I60
sI17
I62
sI18
I65
sI19
I68
sI20
I70
sI21
I73
sI22
I76
sI23
I78
sI24
I81
sI25
I84
sI26
I86
sI27
I89
sI28
I92
sI29
I94
sI30
I97
sI31
I100
sI32
I102
sI33
I105
sI34
I108
sI35
I110
sI36
I113
sI37
I116
sI38
I118
sI39
I121
sI40
I124
sI41
I126
sI42
I129
sI43
I132
sI44
I134
sI45
I137
sI46
I140
sI47
I142
sI48
I145
sI49
I148
sI50
I150
sI51
I153
sI52
I156
sI53
I158
sI54
I161
sI55
I164
sI56
I166
sI57
I169
sI58
I172
sI59
I174
sI60
I177
sI61
I180
sI62
I182
sI63
I185
sI64
I188
sI65
I190
sI66
I193
sI67
I196
sI68
I198
sI69
I201
sI70
I204
sI71
I206
sI72
I209
sI73
I212
sI74
I214
sI75
I217
sI76
I220
sI77
I222
sI78
I225
sI79
I228
sI80
I230
sI81
I233
sI82
I236
sI83
I238
sI84
I241
sI85
I244
sI86
I246
sI87
I249
sI88
I252
sI89
I254
sI90
I257
sI91
I260
sI92
I262
sI93
I265
sI94
I268
sI95
I270
sI96
I273
sI97
I276
sI98
I278
sI99
I281
sI100
I284
sI101
I286
sI102
I289
sI103
I292
sI104
I294
sI105
I297
sI106
I300
sI107
I302
sI108
I305
sI109
I308
sI110
I310
sI111
I313
sI112
I316
sI113
I318
sI114
I321
sI115
I324
sI116
I326
sI117
I329
sI118
I332
sI119
I334
sI120
I337
sI121
I340
sI122
I342
sI123
I345
sI124
I348
sI125
I350
sI126
I353
sI127
I356
sI128
I358
sI129
I361
sI130
I364
sI131
I366
sI132
I369
sI133
I372
sI134
I374
sI135
I377
sI136
I380
sI137
I382
sI138
I385
sI139
I388
sI140
I390
sI141
I393
sI142
I396
sI143
I398
sI144
I401
sI145
I404
sI146
I406
sI147
I409
sI148
I412
sI149
I414
sI150
I417
sI151
I420
sI152
I422
sI153
I425
sI154
I428
sI155
I430
sI156
I433
sI157
I436
sI158
I438
sI159
I441
sI160
I444
sI161
I446
sI162
I449
sI163
I452
sI164
I454
sI165
I457
sI166
I460
sI167
I462
sI168
I465
sI169
I468
sI170
I470
sI171
I473
sI172
I476
sI173
I478
sI174
I481
sI175
I484
sI176
I486
sI177
I489
sI178
I492
sI179
I494
sI180
I497
s.