(dp1
S'02:55  PM'
p2
I95
sS'07:15  PM'
p3
I147
sS'07:10  PM'
p4
I146
sS'05:40  PM'
p5
I128
sS'10:55  AM'
p6
I47
sS'11:00  AM'
p7
I48
sS'01:50  PM'
p8
I82
sS'03:50  PM'
p9
I106
sS'11:20  AM'
p10
I52
sS'03:45  PM'
p11
I105
sS'09:35  AM'
p12
I31
sS'07:55  PM'
p13
I155
sS'12:20  PM'
p14
I64
sS'07:30  PM'
p15
I150
sS'02:25  PM'
p16
I89
sS'09:25  AM'
p17
I29
sS'05:10  PM'
p18
I122
sS'11:40  AM'
p19
I56
sS'12:35  PM'
p20
I67
sS'12:50  PM'
p21
I70
sS'08:55  AM'
p22
I23
sS'08:00  AM'
p23
I12
sS'05:15  PM'
p24
I123
sS'09:10  AM'
p25
I26
sS'02:15  PM'
p26
I87
sS'10:35  AM'
p27
I43
sS'03:05  PM'
p28
I97
sS'01:25  PM'
p29
I77
sS'07:40  AM'
p30
I8
sS'08:40  PM'
p31
I164
sS'10:10  AM'
p32
I38
sS'09:40  PM'
p33
I176
sS'08:25  AM'
p34
I17
sS'08:35  PM'
p35
I163
sS'06:40  PM'
p36
I140
sS'11:50  AM'
p37
I58
sS'06:50  PM'
p38
I142
sS'09:15  AM'
p39
I27
sS'09:45  AM'
p40
I33
sS'10:20  AM'
p41
I40
sS'03:25  PM'
p42
I101
sS'08:15  PM'
p43
I159
sS'11:45  AM'
p44
I57
sS'02:45  PM'
p45
I93
sS'08:05  PM'
p46
I157
sS'09:30  PM'
p47
I174
sS'10:40  AM'
p48
I44
sS'09:55  AM'
p49
I35
sS'03:15  PM'
p50
I99
sS'01:30  PM'
p51
I78
sS'07:35  AM'
p52
I7
sS'08:10  AM'
p53
I14
sS'04:05  PM'
p54
I109
sS'06:05  PM'
p55
I133
sS'12:10  PM'
p56
I62
sS'07:50  PM'
p57
I154
sS'06:10  PM'
p58
I134
sS'01:05  PM'
p59
I73
sS'04:00  PM'
p60
I108
sS'12:30  PM'
p61
I66
sS'05:35  PM'
p62
I127
sS'03:30  PM'
p63
I102
sS'10:00  AM'
p64
I36
sS'08:45  PM'
p65
I165
sS'02:00  PM'
p66
I84
sS'01:40  PM'
p67
I80
sS'09:15  PM'
p68
I171
sS'06:25  PM'
p69
I137
sS'08:50  AM'
p70
I22
sS'02:20  PM'
p71
I88
sS'07:20  AM'
p72
I4
sS'07:05  AM'
p73
I1
sS'01:55  PM'
p74
I83
sS'05:05  PM'
p75
I121
sS'08:30  AM'
p76
I18
sS'08:20  PM'
p77
I160
sS'11:05  AM'
p78
I49
sS'02:40  PM'
p79
I92
sS'04:50  PM'
p80
I118
sS'12:40  PM'
p81
I68
sS'09:10  PM'
p82
I170
sS'09:25  PM'
p83
I173
sS'04:45  PM'
p84
I117
sS'02:10  PM'
p85
I86
sS'11:35  AM'
p86
I55
sS'12:55  PM'
p87
I71
sS'05:55  PM'
p88
I131
sS'04:55  PM'
p89
I119
sS'04:25  PM'
p90
I113
sS'07:00  PM'
p91
I144
sS'07:45  AM'
p92
I9
sS'04:30  PM'
p93
I114
sS'01:10  PM'
p94
I74
sS'09:05  AM'
p95
I25
sS'09:50  AM'
p96
I34
sS'04:35  PM'
p97
I115
sS'03:10  PM'
p98
I98
sS'08:05  AM'
p99
I13
sS'08:20  AM'
p100
I16
sS'03:20  PM'
p101
I100
sS'04:15  PM'
p102
I111
sS'05:30  PM'
p103
I126
sS'07:10  AM'
p104
I2
sS'04:40  PM'
p105
I116
sS'05:20  PM'
p106
I124
sS'06:55  PM'
p107
I143
sS'07:55  AM'
p108
I11
sS'08:50  PM'
p109
I166
sS'08:55  PM'
p110
I167
sS'09:45  PM'
p111
I177
sS'08:00  PM'
p112
I156
sS'07:15  AM'
p113
I3
sS'07:25  AM'
p114
I5
sS'12:05  PM'
p115
I61
sS'09:55  PM'
p116
I179
sS'02:50  PM'
p117
I94
sS'09:20  PM'
p118
I172
sS'03:00  PM'
p119
I96
sS'10:25  AM'
p120
I41
sS'06:00  PM'
p121
I132
sS'09:35  PM'
p122
I175
sS'09:40  AM'
p123
I32
sS'06:30  PM'
p124
I138
sS'06:15  PM'
p125
I135
sS'10:15  AM'
p126
I39
sS'07:40  PM'
p127
I152
sS'02:30  PM'
p128
I90
sS'07:30  AM'
p129
I6
sS'10:00  PM'
p130
I180
sS'05:45  PM'
p131
I129
sS'09:30  AM'
p132
I30
sS'11:25  AM'
p133
I53
sS'09:00  AM'
p134
I24
sS'06:45  PM'
p135
I141
sS'06:20  PM'
p136
I136
sS'11:10  AM'
p137
I50
sS'07:20  PM'
p138
I148
sS'08:40  AM'
p139
I20
sS'04:20  PM'
p140
I112
sS'10:30  AM'
p141
I42
sS'07:05  PM'
p142
I145
sS'01:35  PM'
p143
I79
sS'12:45  PM'
p144
I69
sS'01:20  PM'
p145
I76
sS'01:00  PM'
p146
I72
sS'07:35  PM'
p147
I151
sS'08:10  PM'
p148
I158
sS'11:55  AM'
p149
I59
sS'07:50  AM'
p150
I10
sS'08:35  AM'
p151
I19
sS'08:25  PM'
p152
I161
sS'09:00  PM'
p153
I168
sS'08:45  AM'
p154
I21
sS'03:55  PM'
p155
I107
sS'08:15  AM'
p156
I15
sS'05:50  PM'
p157
I130
sS'01:15  PM'
p158
I75
sS'12:00  PM'
p159
I60
sS'10:45  AM'
p160
I45
sS'12:25  PM'
p161
I65
sS'06:35  PM'
p162
I139
sS'09:20  AM'
p163
I28
sS'11:30  AM'
p164
I54
sS'05:00  PM'
p165
I120
sS'12:15  PM'
p166
I63
sS'08:30  PM'
p167
I162
sS'03:40  PM'
p168
I104
sS'11:15  AM'
p169
I51
sS'07:45  PM'
p170
I153
sS'05:25  PM'
p171
I125
sS'04:10  PM'
p172
I110
sS'03:35  PM'
p173
I103
sS'07:00  AM'
p174
I0
sS'10:50  AM'
p175
I46
sS'10:05  AM'
p176
I37
sS'09:05  PM'
p177
I169
sS'01:45  PM'
p178
I81
sS'02:05  PM'
p179
I85
sS'09:50  PM'
p180
I178
sS'02:35  PM'
p181
I91
sS'07:25  PM'
p182
I149
s.